target datalayout = "e-m:e-p270:32:32-p271:32:32-p272:64:64-i64:64-i128:128-f80:128-n8:16:32:64-S128"
target triple = "x86_64-pc-linux-gnu"

%"class.icu_77::CollationFastLatinBuilder" = type <{ %"class.icu_77::UObject", i64, i64, [448 x [2 x i64]], %"class.icu_77::UVector64", %"class.icu_77::UVector64", ptr, [4 x i32], i32, i32, i32, i32, i8, [7 x i8], %"class.icu_77::UnicodeString", i32, [4 x i8] }>
%"class.icu_77::UObject" = type { ptr }
%"class.icu_77::UVector64" = type { %"class.icu_77::UObject", i32, i32, i32, ptr }
%"class.icu_77::UnicodeString" = type { %"class.icu_77::Replaceable", %"union.icu_77::UnicodeString::StackBufferOrFields" }
%"class.icu_77::Replaceable" = type { %"class.icu_77::UObject" }
%"union.icu_77::UnicodeString::StackBufferOrFields" = type { %struct.anon.0, [32 x i8] }
%struct.anon.0 = type { i16, i32, i32, ptr }

; Function Attrs: inlinehint mustprogress nounwind uwtable
define linkonce_odr noundef i32 @_ZNK6icu_7713UnicodeString14getShortLengthEv(ptr noundef nonnull align 8 dereferenceable(64) %0) #1 comdat align 2 {
  %2 = alloca ptr, align 8
  store ptr %0, ptr %2, align 8, !tbaa !31
  %3 = load ptr, ptr %2, align 8
  %4 = getelementptr inbounds nuw %"class.icu_77::UnicodeString", ptr %3, i32 0, i32 1
  %5 = getelementptr inbounds nuw %struct.anon.0, ptr %4, i32 0, i32 0
  %6 = load i16, ptr %5, align 8, !tbaa !33
  %7 = sext i16 %6 to i32
  %8 = ashr i32 %7, 5
  ret i32 %8
}

; Function Attrs: inlinehint mustprogress nounwind uwtable
define linkonce_odr noundef signext i8 @_ZNK6icu_7713UnicodeString14hasShortLengthEv(ptr noundef nonnull align 8 dereferenceable(64) %0) #1 comdat align 2 {
  %2 = alloca ptr, align 8
  store ptr %0, ptr %2, align 8, !tbaa !31
  %3 = load ptr, ptr %2, align 8
  %4 = getelementptr inbounds nuw %"class.icu_77::UnicodeString", ptr %3, i32 0, i32 1
  %5 = getelementptr inbounds nuw %struct.anon.0, ptr %4, i32 0, i32 0
  %6 = load i16, ptr %5, align 8, !tbaa !33
  %7 = sext i16 %6 to i32
  %8 = icmp sge i32 %7, 0
  %9 = zext i1 %8 to i8
  ret i8 %9
}

; Function Attrs: inlinehint mustprogress nounwind uwtable
define internal noundef signext i8 @_ZL9U_SUCCESS10UErrorCode(i32 noundef %0) #1 {
  %2 = alloca i32, align 4
  store i32 %0, ptr %2, align 4, !tbaa !36
  %3 = load i32, ptr %2, align 4, !tbaa !36
  %4 = icmp sle i32 %3, 0
  %5 = zext i1 %4 to i8
  ret i8 %5
}

; Function Attrs: mustprogress nounwind uwtable
define linkonce_odr noundef signext i8 @_ZN6icu_7725CollationFastLatinBuilder19isContractionCharCEEl(i64 noundef %0) #5 comdat align 2 {
  %2 = alloca i64, align 8
  store i64 %0, ptr %2, align 8, !tbaa !51
  %3 = load i64, ptr %2, align 8, !tbaa !51
  %4 = ashr i64 %3, 32
  %5 = trunc i64 %4 to i32
  %6 = icmp eq i32 %5, 1
  br i1 %6, label %7, label %10

7:                                                ; preds = %1
  %8 = load i64, ptr %2, align 8, !tbaa !51
  %9 = icmp ne i64 %8, 4311744768
  br label %10

10:                                               ; preds = %7, %1
  %11 = phi i1 [ false, %1 ], [ %9, %7 ]
  %12 = zext i1 %11 to i8
  ret i8 %12
}

; Function Attrs: inlinehint mustprogress uwtable
define linkonce_odr noundef nonnull align 8 dereferenceable(64) ptr @_ZN6icu_7713UnicodeString6appendEDs(ptr noundef nonnull align 8 dereferenceable(64) %0, i16 noundef zeroext %1) #3 comdat align 2 {
  %3 = alloca ptr, align 8
  %4 = alloca i16, align 2
  store ptr %0, ptr %3, align 8, !tbaa !31
  store i16 %1, ptr %4, align 2, !tbaa !41
  %5 = load ptr, ptr %3, align 8
  %6 = call noundef nonnull align 8 dereferenceable(64) ptr @_ZN6icu_7713UnicodeString8doAppendEPKDsii(ptr noundef nonnull align 8 dereferenceable(64) %5, ptr noundef %4, i32 noundef 0, i32 noundef 1)
  ret ptr %6
}

; Function Attrs: inlinehint mustprogress uwtable
define linkonce_odr noundef i32 @_ZNK6icu_7713UnicodeString6lengthEv(ptr noundef nonnull align 8 dereferenceable(64) %0) #3 comdat align 2 {
  %2 = alloca ptr, align 8
  store ptr %0, ptr %2, align 8, !tbaa !31
  %3 = load ptr, ptr %2, align 8
  %4 = call noundef signext i8 @_ZNK6icu_7713UnicodeString14hasShortLengthEv(ptr noundef nonnull align 8 dereferenceable(64) %3)
  %5 = icmp ne i8 %4, 0
  br i1 %5, label %6, label %8

6:                                                ; preds = %1
  %7 = call noundef i32 @_ZNK6icu_7713UnicodeString14getShortLengthEv(ptr noundef nonnull align 8 dereferenceable(64) %3)
  br label %12

8:                                                ; preds = %1
  %9 = getelementptr inbounds nuw %"class.icu_77::UnicodeString", ptr %3, i32 0, i32 1
  %10 = getelementptr inbounds nuw %struct.anon.0, ptr %9, i32 0, i32 1
  %11 = load i32, ptr %10, align 4, !tbaa !33
  br label %12

12:                                               ; preds = %8, %6
  %13 = phi i32 [ %7, %6 ], [ %11, %8 ]
  ret i32 %13
}

; Function Attrs: inlinehint mustprogress nounwind uwtable
define internal noundef signext i8 @_ZL9U_FAILURE10UErrorCode(i32 noundef %0) #1 {
  %2 = alloca i32, align 4
  store i32 %0, ptr %2, align 4, !tbaa !36
  %3 = load i32, ptr %2, align 4, !tbaa !36
  %4 = icmp sgt i32 %3, 0
  %5 = zext i1 %4 to i8
  ret i8 %5
}

; Function Attrs: mustprogress uwtable
define noundef signext i8 @_ZN6icu_7725CollationFastLatinBuilder13encodeCharCEsER10UErrorCode(ptr noundef nonnull align 8 dereferenceable(7372) %0, ptr noundef nonnull align 4 dereferenceable(4) %1) #0 align 2 {
  %3 = alloca i8, align 1
  %4 = alloca ptr, align 8
  %5 = alloca ptr, align 8
  %6 = alloca i32, align 4
  %7 = alloca i32, align 4
  %8 = alloca i32, align 4
  %9 = alloca i32, align 4
  %10 = alloca i32, align 4
  %11 = alloca i64, align 8
  %12 = alloca i32, align 4
  %13 = alloca i32, align 4
  store ptr %0, ptr %4, align 8, !tbaa !3
  store ptr %1, ptr %5, align 8, !tbaa !8
  %14 = load ptr, ptr %4, align 8
  %15 = load ptr, ptr %5, align 8, !tbaa !8
  %16 = load i32, ptr %15, align 4, !tbaa !36
  %17 = call noundef signext i8 @_ZL9U_FAILURE10UErrorCode(i32 noundef %16)
  %18 = icmp ne i8 %17, 0
  br i1 %18, label %19, label %20

19:                                               ; preds = %2
  store i8 0, ptr %3, align 1
  br label %100

20:                                               ; preds = %2
  call void @llvm.lifetime.start.p0(i64 4, ptr %6) #9
  %21 = getelementptr inbounds nuw %"class.icu_77::CollationFastLatinBuilder", ptr %14, i32 0, i32 14
  %22 = call noundef i32 @_ZNK6icu_7713UnicodeString6lengthEv(ptr noundef nonnull align 8 dereferenceable(64) %21)
  store i32 %22, ptr %6, align 4, !tbaa !38
  call void @llvm.lifetime.start.p0(i64 4, ptr %7) #9
  store i32 0, ptr %7, align 4, !tbaa !38
  br label %23

23:                                               ; preds = %30, %20
  %24 = load i32, ptr %7, align 4, !tbaa !38
  %25 = icmp slt i32 %24, 448
  br i1 %25, label %27, label %26

26:                                               ; preds = %23
  call void @llvm.lifetime.end.p0(i64 4, ptr %7) #9
  br label %33

27:                                               ; preds = %23
  %28 = getelementptr inbounds nuw %"class.icu_77::CollationFastLatinBuilder", ptr %14, i32 0, i32 14
  %29 = call noundef nonnull align 8 dereferenceable(64) ptr @_ZN6icu_7713UnicodeString6appendEDs(ptr noundef nonnull align 8 dereferenceable(64) %28, i16 noundef zeroext 0)
  br label %30

30:                                               ; preds = %27
  %31 = load i32, ptr %7, align 4, !tbaa !38
  %32 = add nsw i32 %31, 1
  store i32 %32, ptr %7, align 4, !tbaa !38
  br label %23, !llvm.loop !57

33:                                               ; preds = %26
  call void @llvm.lifetime.start.p0(i64 4, ptr %8) #9
  %34 = getelementptr inbounds nuw %"class.icu_77::CollationFastLatinBuilder", ptr %14, i32 0, i32 14
  %35 = call noundef i32 @_ZNK6icu_7713UnicodeString6lengthEv(ptr noundef nonnull align 8 dereferenceable(64) %34)
  store i32 %35, ptr %8, align 4, !tbaa !38
  call void @llvm.lifetime.start.p0(i64 4, ptr %9) #9
  store i32 0, ptr %9, align 4, !tbaa !38
  br label %36

36:                                               ; preds = %93, %33
  %37 = load i32, ptr %9, align 4, !tbaa !38
  %38 = icmp slt i32 %37, 448
  br i1 %38, label %40, label %39

39:                                               ; preds = %36
  store i32 5, ptr %10, align 4
  call void @llvm.lifetime.end.p0(i64 4, ptr %9) #9
  br label %96

40:                                               ; preds = %36
  call void @llvm.lifetime.start.p0(i64 8, ptr %11) #9
  %41 = getelementptr inbounds nuw %"class.icu_77::CollationFastLatinBuilder", ptr %14, i32 0, i32 3
  %42 = load i32, ptr %9, align 4, !tbaa !38
  %43 = sext i32 %42 to i64
  %44 = getelementptr inbounds [448 x [2 x i64]], ptr %41, i64 0, i64 %43
  %45 = getelementptr inbounds [2 x i64], ptr %44, i64 0, i64 0
  %46 = load i64, ptr %45, align 8, !tbaa !51
  store i64 %46, ptr %11, align 8, !tbaa !51
  %47 = load i64, ptr %11, align 8, !tbaa !51
  %48 = call noundef signext i8 @_ZN6icu_7725CollationFastLatinBuilder19isContractionCharCEEl(i64 noundef %47)
  %49 = icmp ne i8 %48, 0
  br i1 %49, label %50, label %51

50:                                               ; preds = %40
  store i32 7, ptr %10, align 4
  br label %90

51:                                               ; preds = %40
  call void @llvm.lifetime.start.p0(i64 4, ptr %12) #9
  %52 = load i64, ptr %11, align 8, !tbaa !51
  %53 = getelementptr inbounds nuw %"class.icu_77::CollationFastLatinBuilder", ptr %14, i32 0, i32 3
  %54 = load i32, ptr %9, align 4, !tbaa !38
  %55 = sext i32 %54 to i64
  %56 = getelementptr inbounds [448 x [2 x i64]], ptr %53, i64 0, i64 %55
  %57 = getelementptr inbounds [2 x i64], ptr %56, i64 0, i64 1
  %58 = load i64, ptr %57, align 8, !tbaa !51
  %59 = call noundef i32 @_ZNK6icu_7725CollationFastLatinBuilder12encodeTwoCEsEll(ptr noundef nonnull align 8 dereferenceable(7372) %14, i64 noundef %52, i64 noundef %58)
  store i32 %59, ptr %12, align 4, !tbaa !38
  %60 = load i32, ptr %12, align 4, !tbaa !38
  %61 = icmp ugt i32 %60, 65535
  br i1 %61, label %62, label %82

62:                                               ; preds = %51
  call void @llvm.lifetime.start.p0(i64 4, ptr %13) #9
  %63 = getelementptr inbounds nuw %"class.icu_77::CollationFastLatinBuilder", ptr %14, i32 0, i32 14
  %64 = call noundef i32 @_ZNK6icu_7713UnicodeString6lengthEv(ptr noundef nonnull align 8 dereferenceable(64) %63)
  %65 = load i32, ptr %8, align 4, !tbaa !38
  %66 = sub nsw i32 %64, %65
  store i32 %66, ptr %13, align 4, !tbaa !38
  %67 = load i32, ptr %13, align 4, !tbaa !38
  %68 = icmp sgt i32 %67, 1023
  br i1 %68, label %69, label %70

69:                                               ; preds = %62
  store i32 1, ptr %12, align 4, !tbaa !38
  br label %81

70:                                               ; preds = %62
  %71 = getelementptr inbounds nuw %"class.icu_77::CollationFastLatinBuilder", ptr %14, i32 0, i32 14
  %72 = load i32, ptr %12, align 4, !tbaa !38
  %73 = lshr i32 %72, 16
  %74 = trunc i32 %73 to i16
  %75 = call noundef nonnull align 8 dereferenceable(64) ptr @_ZN6icu_7713UnicodeString6appendEDs(ptr noundef nonnull align 8 dereferenceable(64) %71, i16 noundef zeroext %74)
  %76 = load i32, ptr %12, align 4, !tbaa !38
  %77 = trunc i32 %76 to i16
  %78 = call noundef nonnull align 8 dereferenceable(64) ptr @_ZN6icu_7713UnicodeString6appendEDs(ptr noundef nonnull align 8 dereferenceable(64) %75, i16 noundef zeroext %77)
  %79 = load i32, ptr %13, align 4, !tbaa !38
  %80 = or i32 2048, %79
  store i32 %80, ptr %12, align 4, !tbaa !38
  br label %81

81:                                               ; preds = %70, %69
  call void @llvm.lifetime.end.p0(i64 4, ptr %13) #9
  br label %82

82:                                               ; preds = %81, %51
  %83 = getelementptr inbounds nuw %"class.icu_77::CollationFastLatinBuilder", ptr %14, i32 0, i32 14
  %84 = load i32, ptr %6, align 4, !tbaa !38
  %85 = load i32, ptr %9, align 4, !tbaa !38
  %86 = add nsw i32 %84, %85
  %87 = load i32, ptr %12, align 4, !tbaa !38
  %88 = trunc i32 %87 to i16
  %89 = call noundef nonnull align 8 dereferenceable(64) ptr @_ZN6icu_7713UnicodeString9setCharAtEiDs(ptr noundef nonnull align 8 dereferenceable(64) %83, i32 noundef %86, i16 noundef zeroext %88)
  call void @llvm.lifetime.end.p0(i64 4, ptr %12) #9
  store i32 0, ptr %10, align 4
  br label %90

90:                                               ; preds = %82, %50
  call void @llvm.lifetime.end.p0(i64 8, ptr %11) #9
  %91 = load i32, ptr %10, align 4
  switch i32 %91, label %102 [
    i32 0, label %92
    i32 7, label %93
  ]

92:                                               ; preds = %90
  br label %93

93:                                               ; preds = %92, %90
  %94 = load i32, ptr %9, align 4, !tbaa !38
  %95 = add nsw i32 %94, 1
  store i32 %95, ptr %9, align 4, !tbaa !38
  br label %36, !llvm.loop !58

96:                                               ; preds = %39
  %97 = load ptr, ptr %5, align 8, !tbaa !8
  %98 = load i32, ptr %97, align 4, !tbaa !36
  %99 = call noundef signext i8 @_ZL9U_SUCCESS10UErrorCode(i32 noundef %98)
  store i8 %99, ptr %3, align 1
  store i32 1, ptr %10, align 4
  call void @llvm.lifetime.end.p0(i64 4, ptr %8) #9
  call void @llvm.lifetime.end.p0(i64 4, ptr %6) #9
  br label %100

100:                                              ; preds = %96, %19
  %101 = load i8, ptr %3, align 1
  ret i8 %101

102:                                              ; preds = %90
  unreachable
}