; Function Attrs: mustprogress uwtable
define noundef signext range(i8 0, 2) i8 @_ZN6icu_7725CollationFastLatinBuilder13encodeCharCEsER10UErrorCode(ptr noundef nonnull align 8 dereferenceable(7372) %0, ptr noundef nonnull readonly align 4 captures(none) dereferenceable(4) %1) local_unnamed_addr #0 align 2 {
  %3 = alloca i16, align 2
  %4 = alloca i16, align 2
  %5 = alloca i16, align 2
  %6 = load i32, ptr %1, align 4, !tbaa !20
  %7 = icmp slt i32 %6, 1
  br i1 %7, label %8, label %65

8:                                                ; preds = %2
  %9 = getelementptr inbounds nuw i8, ptr %0, i64 7304
  %10 = getelementptr inbounds nuw i8, ptr %0, i64 7312
  %11 = load i16, ptr %10, align 8, !tbaa !18
  %12 = ashr i16 %11, 5
  %13 = getelementptr inbounds nuw i8, ptr %0, i64 7316
  %14 = load i32, ptr %13, align 4
  br label %26

15:                                               ; preds = %26
  %16 = icmp slt i16 %11, 0
  %17 = sext i16 %12 to i32
  %18 = select i1 %16, i32 %14, i32 %17
  %19 = load i16, ptr %10, align 8, !tbaa !18
  %20 = icmp slt i16 %19, 0
  %21 = ashr i16 %19, 5
  %22 = sext i16 %21 to i32
  %23 = load i32, ptr %13, align 4
  %24 = select i1 %20, i32 %23, i32 %22
  %25 = getelementptr inbounds nuw i8, ptr %0, i64 24
  br label %33

26:                                               ; preds = %8, %26
  %.02129 = phi i32 [ 0, %8 ], [ %28, %26 ]
  call void @llvm.lifetime.start.p0(i64 2, ptr nonnull %5)
  store i16 0, ptr %5, align 2, !tbaa !26
  %27 = call noundef nonnull align 8 dereferenceable(64) ptr @_ZN6icu_7713UnicodeString8doAppendEPKDsii(ptr noundef nonnull align 8 dereferenceable(64) %9, ptr noundef nonnull %5, i32 noundef 0, i32 noundef 1)
  call void @llvm.lifetime.end.p0(i64 2, ptr nonnull %5)
  %28 = add nuw nsw i32 %.02129, 1
  %exitcond.not = icmp eq i32 %28, 448
  br i1 %exitcond.not, label %15, label %26, !llvm.loop !57

29:                                               ; preds = %64
  %30 = load i32, ptr %1, align 4, !tbaa !20
  %31 = icmp slt i32 %30, 1
  %32 = zext i1 %31 to i8
  br label %65

33:                                               ; preds = %15, %64
  %indvars.iv = phi i64 [ 0, %15 ], [ %indvars.iv.next, %64 ]
  %34 = getelementptr inbounds nuw [448 x [2 x i64]], ptr %25, i64 0, i64 %indvars.iv
  %35 = load i64, ptr %34, align 8, !tbaa !47
  %.mask.i = and i64 %35, -4294967296
  %36 = icmp ne i64 %.mask.i, 4294967296
  %37 = icmp eq i64 %35, 4311744768
  %.not28 = or i1 %37, %36
  br i1 %.not28, label %38, label %64

38:                                               ; preds = %33
  %39 = getelementptr inbounds nuw i8, ptr %34, i64 8
  %40 = load i64, ptr %39, align 8, !tbaa !47
  %41 = call noundef i32 @_ZNK6icu_7725CollationFastLatinBuilder12encodeTwoCEsEll(ptr noundef nonnull align 8 dereferenceable(7372) %0, i64 noundef %35, i64 noundef %40)
  %42 = icmp ugt i32 %41, 65535
  br i1 %42, label %43, label %59

43:                                               ; preds = %38
  %44 = load i16, ptr %10, align 8, !tbaa !18
  %45 = icmp slt i16 %44, 0
  %46 = ashr i16 %44, 5
  %47 = sext i16 %46 to i32
  %48 = load i32, ptr %13, align 4
  %49 = select i1 %45, i32 %48, i32 %47
  %50 = sub nsw i32 %49, %24
  %51 = icmp sgt i32 %50, 1023
  br i1 %51, label %59, label %52

52:                                               ; preds = %43
  %53 = lshr i32 %41, 16
  %54 = trunc nuw i32 %53 to i16
  call void @llvm.lifetime.start.p0(i64 2, ptr nonnull %4)
  store i16 %54, ptr %4, align 2, !tbaa !26
  %55 = call noundef nonnull align 8 dereferenceable(64) ptr @_ZN6icu_7713UnicodeString8doAppendEPKDsii(ptr noundef nonnull align 8 dereferenceable(64) %9, ptr noundef nonnull %4, i32 noundef 0, i32 noundef 1)
  call void @llvm.lifetime.end.p0(i64 2, ptr nonnull %4)
  %56 = trunc i32 %41 to i16
  call void @llvm.lifetime.start.p0(i64 2, ptr nonnull %3)
  store i16 %56, ptr %3, align 2, !tbaa !26
  %57 = call noundef nonnull align 8 dereferenceable(64) ptr @_ZN6icu_7713UnicodeString8doAppendEPKDsii(ptr noundef nonnull align 8 dereferenceable(64) %55, ptr noundef nonnull %3, i32 noundef 0, i32 noundef 1)
  call void @llvm.lifetime.end.p0(i64 2, ptr nonnull %3)
  %58 = or i32 %50, 2048
  br label %59

59:                                               ; preds = %52, %43, %38
  %.020 = phi i32 [ %41, %38 ], [ %58, %52 ], [ 1, %43 ]
  %60 = trunc i32 %.020 to i16
  %61 = trunc i64 %indvars.iv to i32
  %62 = add i32 %18, %61
  %63 = call noundef nonnull align 8 dereferenceable(64) ptr @_ZN6icu_7713UnicodeString9setCharAtEiDs(ptr noundef nonnull align 8 dereferenceable(64) %9, i32 noundef %62, i16 noundef zeroext %60)
  br label %64

64:                                               ; preds = %33, %59
  %indvars.iv.next = add nuw nsw i64 %indvars.iv, 1
  %exitcond32.not = icmp eq i64 %indvars.iv.next, 448
  br i1 %exitcond32.not, label %29, label %33, !llvm.loop !58

65:                                               ; preds = %2, %29
  %.0 = phi i8 [ %32, %29 ], [ 0, %2 ]
  ret i8 %.0
}